; Function Attrs: mustprogress nounwind uwtable
define hidden void @_ZN6hermes3sem17SemanticValidator5visitEPNS_6ESTree18BlockStatementNodeE(ptr noundef nonnull align 8 dereferenceable(168) %this, ptr noundef %block) local_unnamed_addr #0 align 2 {
entry:
  %blockScope = alloca %"class.hermes::sem::BlockContext", align 8
  %funcCtx_.i = getelementptr inbounds nuw i8, ptr %this, i64 152
  %0 = load ptr, ptr %funcCtx_.i, align 8
  call void @_ZN6hermes3sem12BlockContextC2EPNS0_17SemanticValidatorEPNS0_15FunctionContextEPNS_6ESTree4NodeE(ptr noundef nonnull align 8 dereferenceable(40) %blockScope, ptr noundef nonnull %this, ptr noundef %0, ptr noundef %block)
  %_body.i = getelementptr inbounds nuw i8, ptr %block, i64 56
  %Next.i.i.i.i = getelementptr inbounds nuw i8, ptr %block, i64 64
  %__begin4.i.i.sroa.0.04 = load ptr, ptr %Next.i.i.i.i, align 8
  %cmp.i.not5 = icmp eq ptr %__begin4.i.i.sroa.0.04, %_body.i
  br i1 %cmp.i.not5, label %_ZN6hermes6ESTree24RecursiveVisitorDispatchINS_3sem17SemanticValidatorELb1EE13visitChildrenERS3_PNS0_18BlockStatementNodeE.exit, label %for.body.i.i

for.body.i.i:                                     ; preds = %entry, %for.body.i.i
  %__begin4.i.i.sroa.0.06 = phi ptr [ %__begin4.i.i.sroa.0.0, %for.body.i.i ], [ %__begin4.i.i.sroa.0.04, %entry ]
  %call5.i.i = tail call { ptr, i8 } @_ZN6hermes6ESTree24RecursiveVisitorDispatchINS_3sem17SemanticValidatorELb1EE5visitERS3_PNS0_4NodeES7_(ptr noundef nonnull align 8 dereferenceable(168) %this, ptr noundef nonnull %__begin4.i.i.sroa.0.06, ptr noundef %block)
  %Next.i.i.i = getelementptr inbounds nuw i8, ptr %__begin4.i.i.sroa.0.06, i64 8
  %__begin4.i.i.sroa.0.0 = load ptr, ptr %Next.i.i.i, align 8
  %cmp.i.not = icmp eq ptr %__begin4.i.i.sroa.0.0, %_body.i
  br i1 %cmp.i.not, label %_ZN6hermes6ESTree24RecursiveVisitorDispatchINS_3sem17SemanticValidatorELb1EE13visitChildrenERS3_PNS0_18BlockStatementNodeE.exit, label %for.body.i.i

_ZN6hermes6ESTree24RecursiveVisitorDispatchINS_3sem17SemanticValidatorELb1EE13visitChildrenERS3_PNS0_18BlockStatementNodeE.exit: ; preds = %for.body.i.i, %entry
  call void @_ZN6hermes3sem12BlockContext26ensureScopedNamesAreUniqueENS1_14IsFunctionBodyEPNS_6ESTree14IdentifierNodeE(ptr noundef nonnull align 8 dereferenceable(40) %blockScope, i32 noundef 0, ptr noundef null)
  %previousScopedDecls_.i = getelementptr inbounds nuw i8, ptr %blockScope, i64 16
  %1 = load ptr, ptr %previousScopedDecls_.i, align 8
  %curFunction_.i = getelementptr inbounds nuw i8, ptr %blockScope, i64 8
  %2 = load ptr, ptr %curFunction_.i, align 8
  %scopedDecls.i = getelementptr inbounds nuw i8, ptr %2, i64 48
  store ptr %1, ptr %scopedDecls.i, align 8
  %previousScopedClosures_.i = getelementptr inbounds nuw i8, ptr %blockScope, i64 24
  %3 = load ptr, ptr %previousScopedClosures_.i, align 8
  %scopedClosures.i = getelementptr inbounds nuw i8, ptr %2, i64 56
  store ptr %3, ptr %scopedClosures.i, align 8
  ret void
}